target datalayout = "e-m:e-p270:32:32-p271:32:32-p272:64:64-i64:64-i128:128-f80:128-n8:16:32:64-S128"
target triple = "x86_64-pc-linux-gnu"

; Function Attrs: nounwind uwtable
define internal i32 @tcache_create_ctl(ptr noundef %0, ptr noundef %1, i64 noundef %2, ptr noundef %3, ptr noundef %4, ptr noundef %5, i64 noundef %6) #0 {
  %8 = alloca i32, align 4
  %9 = alloca ptr, align 8
  %10 = alloca ptr, align 8
  %11 = alloca i64, align 8
  %12 = alloca ptr, align 8
  %13 = alloca ptr, align 8
  %14 = alloca ptr, align 8
  %15 = alloca i64, align 8
  %16 = alloca i32, align 4
  %17 = alloca i32, align 4
  %18 = alloca i64, align 8
  %19 = alloca i32, align 4
  store ptr %0, ptr %9, align 8, !tbaa !4
  store ptr %1, ptr %10, align 8, !tbaa !12
  store i64 %2, ptr %11, align 8, !tbaa !14
  store ptr %3, ptr %12, align 8, !tbaa !11
  store ptr %4, ptr %13, align 8, !tbaa !12
  store ptr %5, ptr %14, align 8, !tbaa !11
  store i64 %6, ptr %15, align 8, !tbaa !14
  call void @llvm.lifetime.start.p0(i64 4, ptr %16) #13
  call void @llvm.lifetime.start.p0(i64 4, ptr %17) #13
  br label %20

20:                                               ; preds = %7
  %21 = load ptr, ptr %14, align 8, !tbaa !11
  %22 = icmp ne ptr %21, null
  br i1 %22, label %26, label %23

23:                                               ; preds = %20
  %24 = load i64, ptr %15, align 8, !tbaa !14
  %25 = icmp ne i64 %24, 0
  br i1 %25, label %26, label %27

26:                                               ; preds = %23, %20
  store i32 1, ptr %16, align 4, !tbaa !20
  br label %85

27:                                               ; preds = %23
  br label %28

28:                                               ; preds = %27
  br label %29

29:                                               ; preds = %28
  br label %30

30:                                               ; preds = %29
  %31 = load ptr, ptr %12, align 8, !tbaa !11
  %32 = icmp eq ptr %31, null
  br i1 %32, label %40, label %33

33:                                               ; preds = %30
  %34 = load ptr, ptr %13, align 8, !tbaa !12
  %35 = icmp eq ptr %34, null
  br i1 %35, label %40, label %36

36:                                               ; preds = %33
  %37 = load ptr, ptr %13, align 8, !tbaa !12
  %38 = load i64, ptr %37, align 8, !tbaa !14
  %39 = icmp ne i64 %38, 4
  br i1 %39, label %40, label %46

40:                                               ; preds = %36, %33, %30
  %41 = load ptr, ptr %13, align 8, !tbaa !12
  %42 = icmp ne ptr %41, null
  br i1 %42, label %43, label %45

43:                                               ; preds = %40
  %44 = load ptr, ptr %13, align 8, !tbaa !12
  store i64 0, ptr %44, align 8, !tbaa !14
  br label %45

45:                                               ; preds = %43, %40
  store i32 22, ptr %16, align 4, !tbaa !20
  br label %85

46:                                               ; preds = %36
  br label %47

47:                                               ; preds = %46
  br label %48

48:                                               ; preds = %47
  %49 = load ptr, ptr %9, align 8, !tbaa !4
  %50 = call ptr @je_b0get()
  %51 = call zeroext i1 @je_tcaches_create(ptr noundef %49, ptr noundef %50, ptr noundef %17)
  br i1 %51, label %52, label %53

52:                                               ; preds = %48
  store i32 14, ptr %16, align 4, !tbaa !20
  br label %85

53:                                               ; preds = %48
  br label %54

54:                                               ; preds = %53
  %55 = load ptr, ptr %12, align 8, !tbaa !11
  %56 = icmp ne ptr %55, null
  br i1 %56, label %57, label %82

57:                                               ; preds = %54
  %58 = load ptr, ptr %13, align 8, !tbaa !12
  %59 = icmp ne ptr %58, null
  br i1 %59, label %60, label %82

60:                                               ; preds = %57
  %61 = load ptr, ptr %13, align 8, !tbaa !12
  %62 = load i64, ptr %61, align 8, !tbaa !14
  %63 = icmp ne i64 %62, 4
  br i1 %63, label %64, label %79

64:                                               ; preds = %60
  call void @llvm.lifetime.start.p0(i64 8, ptr %18) #13
  %65 = load ptr, ptr %13, align 8, !tbaa !12
  %66 = load i64, ptr %65, align 8, !tbaa !14
  %67 = icmp ule i64 4, %66
  br i1 %67, label %68, label %69

68:                                               ; preds = %64
  br label %72

69:                                               ; preds = %64
  %70 = load ptr, ptr %13, align 8, !tbaa !12
  %71 = load i64, ptr %70, align 8, !tbaa !14
  br label %72

72:                                               ; preds = %69, %68
  %73 = phi i64 [ 4, %68 ], [ %71, %69 ]
  store i64 %73, ptr %18, align 8, !tbaa !14
  %74 = load ptr, ptr %12, align 8, !tbaa !11
  %75 = load i64, ptr %18, align 8, !tbaa !14
  call void @llvm.memcpy.p0.p0.i64(ptr align 1 %74, ptr align 1 %17, i64 %75, i1 false)
  %76 = load i64, ptr %18, align 8, !tbaa !14
  %77 = load ptr, ptr %13, align 8, !tbaa !12
  store i64 %76, ptr %77, align 8, !tbaa !14
  store i32 22, ptr %16, align 4, !tbaa !20
  store i32 4, ptr %19, align 4
  call void @llvm.lifetime.end.p0(i64 8, ptr %18) #13
  %78 = load i32, ptr %19, align 4
  switch i32 %78, label %87 [
    i32 4, label %85
  ]

79:                                               ; preds = %60
  %80 = load i32, ptr %17, align 4, !tbaa !20
  %81 = load ptr, ptr %12, align 8, !tbaa !11
  store i32 %80, ptr %81, align 4, !tbaa !20
  br label %82

82:                                               ; preds = %79, %57, %54
  br label %83

83:                                               ; preds = %82
  br label %84

84:                                               ; preds = %83
  store i32 0, ptr %16, align 4, !tbaa !20
  br label %85

85:                                               ; preds = %84, %72, %52, %45, %26
  %86 = load i32, ptr %16, align 4, !tbaa !20
  store i32 %86, ptr %8, align 4
  store i32 1, ptr %19, align 4
  br label %87

87:                                               ; preds = %85, %72
  call void @llvm.lifetime.end.p0(i64 4, ptr %17) #13
  call void @llvm.lifetime.end.p0(i64 4, ptr %16) #13
  %88 = load i32, ptr %8, align 4
  ret i32 %88
}